; Function Attrs: mustprogress uwtable
define noundef zeroext i1 @_ZN6google8protobuf25EncodedDescriptorDatabase23FindAllExtensionNumbersERKNSt7__cxx1112basic_stringIcSt11char_traitsIcESaIcEEEPSt6vectorIiSaIiEE(ptr nocapture noundef nonnull readonly align 8 dereferenceable(40) %this, ptr noundef nonnull align 8 dereferenceable(32) %extendee_type, ptr nocapture noundef %output) unnamed_addr #6 align 2 {
entry:
  %index_ = getelementptr inbounds i8, ptr %this, i64 8
  %0 = load ptr, ptr %index_, align 8
  %call2 = tail call { i64, ptr } @_ZNKSt7__cxx1112basic_stringIcSt11char_traitsIcESaIcEEcvSt17basic_string_viewIcS2_EEv(ptr noundef nonnull align 8 dereferenceable(32) %extendee_type) #28
  %1 = extractvalue { i64, ptr } %call2, 0
  %2 = extractvalue { i64, ptr } %call2, 1
  %call3 = tail call noundef zeroext i1 @_ZN6google8protobuf25EncodedDescriptorDatabase15DescriptorIndex23FindAllExtensionNumbersESt17basic_string_viewIcSt11char_traitsIcEEPSt6vectorIiSaIiEE(ptr noundef nonnull align 8 dereferenceable(192) %0, i64 %1, ptr %2, ptr noundef %output)
  ret i1 %call3
}